target datalayout = "e-m:e-p270:32:32-p271:32:32-p272:64:64-i64:64-i128:128-f80:128-n8:16:32:64-S128"
target triple = "x86_64-unknown-linux-gnu"

%class.decl_plugin = type <{ ptr, ptr, i32, [4 x i8] }>

@.str.100 = private unnamed_addr constant [36 x i8] c"unsupported floating point operator\00", align 1

; Function Attrs: mustprogress uwtable
define hidden noundef ptr @_ZN15fpa_decl_plugin12mk_func_declEijPK9parameterjPKP4sortS4_(ptr noundef nonnull align 8 dereferenceable(1008) %this, i32 noundef %k, i32 noundef %num_parameters, ptr noundef %parameters, i32 noundef %arity, ptr noundef %domain, ptr noundef %range) unnamed_addr #4 align 2 {
entry:
  %retval = alloca ptr, align 8
  %this.addr = alloca ptr, align 8
  %k.addr = alloca i32, align 4
  %num_parameters.addr = alloca i32, align 4
  %parameters.addr = alloca ptr, align 8
  %arity.addr = alloca i32, align 4
  %domain.addr = alloca ptr, align 8
  %range.addr = alloca ptr, align 8
  store ptr %this, ptr %this.addr, align 8
  store i32 %k, ptr %k.addr, align 4
  store i32 %num_parameters, ptr %num_parameters.addr, align 4
  store ptr %parameters, ptr %parameters.addr, align 8
  store i32 %arity, ptr %arity.addr, align 4
  store ptr %domain, ptr %domain.addr, align 8
  store ptr %range, ptr %range.addr, align 8
  %this1 = load ptr, ptr %this.addr, align 8
  %0 = load i32, ptr %k.addr, align 4
  switch i32 %0, label %sw.default [
    i32 7, label %sw.bb
    i32 6, label %sw.bb
    i32 8, label %sw.bb
    i32 10, label %sw.bb
    i32 9, label %sw.bb
    i32 0, label %sw.bb2
    i32 1, label %sw.bb2
    i32 2, label %sw.bb2
    i32 3, label %sw.bb2
    i32 4, label %sw.bb2
    i32 25, label %sw.bb4
    i32 26, label %sw.bb4
    i32 27, label %sw.bb4
    i32 28, label %sw.bb4
    i32 29, label %sw.bb4
    i32 32, label %sw.bb6
    i32 35, label %sw.bb6
    i32 36, label %sw.bb6
    i32 30, label %sw.bb6
    i32 31, label %sw.bb6
    i32 33, label %sw.bb6
    i32 34, label %sw.bb6
    i32 17, label %sw.bb8
    i32 13, label %sw.bb8
    i32 16, label %sw.bb10
    i32 18, label %sw.bb10
    i32 19, label %sw.bb10
    i32 20, label %sw.bb10
    i32 21, label %sw.bb10
    i32 11, label %sw.bb12
    i32 14, label %sw.bb12
    i32 15, label %sw.bb12
    i32 12, label %sw.bb14
    i32 23, label %sw.bb17
    i32 24, label %sw.bb17
    i32 22, label %sw.bb19
    i32 37, label %sw.bb21
    i32 40, label %sw.bb23
    i32 45, label %sw.bb23
    i32 41, label %sw.bb25
    i32 44, label %sw.bb25
    i32 42, label %sw.bb27
    i32 43, label %sw.bb27
    i32 38, label %sw.bb29
    i32 39, label %sw.bb31
    i32 46, label %sw.bb33
    i32 47, label %sw.bb33
    i32 48, label %sw.bb35
    i32 49, label %sw.bb37
  ]

sw.bb:                                            ; preds = %entry, %entry, %entry, %entry, %entry
  %1 = load i32, ptr %k.addr, align 4
  %2 = load i32, ptr %num_parameters.addr, align 4
  %3 = load ptr, ptr %parameters.addr, align 8
  %4 = load i32, ptr %arity.addr, align 4
  %5 = load ptr, ptr %domain.addr, align 8
  %6 = load ptr, ptr %range.addr, align 8
  %call = call noundef ptr @_ZN15fpa_decl_plugin19mk_float_const_declEijPK9parameterjPKP4sortS4_(ptr noundef nonnull align 8 dereferenceable(1008) %this1, i32 noundef %1, i32 noundef %2, ptr noundef %3, i32 noundef %4, ptr noundef %5, ptr noundef %6)
  store ptr %call, ptr %retval, align 8
  br label %return

sw.bb2:                                           ; preds = %entry, %entry, %entry, %entry, %entry
  %7 = load i32, ptr %k.addr, align 4
  %8 = load i32, ptr %num_parameters.addr, align 4
  %9 = load ptr, ptr %parameters.addr, align 8
  %10 = load i32, ptr %arity.addr, align 4
  %11 = load ptr, ptr %domain.addr, align 8
  %12 = load ptr, ptr %range.addr, align 8
  %call3 = call noundef ptr @_ZN15fpa_decl_plugin16mk_rm_const_declEijPK9parameterjPKP4sortS4_(ptr noundef nonnull align 8 dereferenceable(1008) %this1, i32 noundef %7, i32 noundef %8, ptr noundef %9, i32 noundef %10, ptr noundef %11, ptr noundef %12)
  store ptr %call3, ptr %retval, align 8
  br label %return

sw.bb4:                                           ; preds = %entry, %entry, %entry, %entry, %entry
  %13 = load i32, ptr %k.addr, align 4
  %14 = load i32, ptr %num_parameters.addr, align 4
  %15 = load ptr, ptr %parameters.addr, align 8
  %16 = load i32, ptr %arity.addr, align 4
  %17 = load ptr, ptr %domain.addr, align 8
  %18 = load ptr, ptr %range.addr, align 8
  %call5 = call noundef ptr @_ZN15fpa_decl_plugin15mk_bin_rel_declEijPK9parameterjPKP4sortS4_(ptr noundef nonnull align 8 dereferenceable(1008) %this1, i32 noundef %13, i32 noundef %14, ptr noundef %15, i32 noundef %16, ptr noundef %17, ptr noundef %18)
  store ptr %call5, ptr %retval, align 8
  br label %return

sw.bb6:                                           ; preds = %entry, %entry, %entry, %entry, %entry, %entry, %entry
  %19 = load i32, ptr %k.addr, align 4
  %20 = load i32, ptr %num_parameters.addr, align 4
  %21 = load ptr, ptr %parameters.addr, align 8
  %22 = load i32, ptr %arity.addr, align 4
  %23 = load ptr, ptr %domain.addr, align 8
  %24 = load ptr, ptr %range.addr, align 8
  %call7 = call noundef ptr @_ZN15fpa_decl_plugin17mk_unary_rel_declEijPK9parameterjPKP4sortS4_(ptr noundef nonnull align 8 dereferenceable(1008) %this1, i32 noundef %19, i32 noundef %20, ptr noundef %21, i32 noundef %22, ptr noundef %23, ptr noundef %24)
  store ptr %call7, ptr %retval, align 8
  br label %return

sw.bb8:                                           ; preds = %entry, %entry
  %25 = load i32, ptr %k.addr, align 4
  %26 = load i32, ptr %num_parameters.addr, align 4
  %27 = load ptr, ptr %parameters.addr, align 8
  %28 = load i32, ptr %arity.addr, align 4
  %29 = load ptr, ptr %domain.addr, align 8
  %30 = load ptr, ptr %range.addr, align 8
  %call9 = call noundef ptr @_ZN15fpa_decl_plugin13mk_unary_declEijPK9parameterjPKP4sortS4_(ptr noundef nonnull align 8 dereferenceable(1008) %this1, i32 noundef %25, i32 noundef %26, ptr noundef %27, i32 noundef %28, ptr noundef %29, ptr noundef %30)
  store ptr %call9, ptr %retval, align 8
  br label %return

sw.bb10:                                          ; preds = %entry, %entry, %entry, %entry, %entry
  %31 = load i32, ptr %k.addr, align 4
  %32 = load i32, ptr %num_parameters.addr, align 4
  %33 = load ptr, ptr %parameters.addr, align 8
  %34 = load i32, ptr %arity.addr, align 4
  %35 = load ptr, ptr %domain.addr, align 8
  %36 = load ptr, ptr %range.addr, align 8
  %call11 = call noundef ptr @_ZN15fpa_decl_plugin14mk_binary_declEijPK9parameterjPKP4sortS4_(ptr noundef nonnull align 8 dereferenceable(1008) %this1, i32 noundef %31, i32 noundef %32, ptr noundef %33, i32 noundef %34, ptr noundef %35, ptr noundef %36)
  store ptr %call11, ptr %retval, align 8
  br label %return

sw.bb12:                                          ; preds = %entry, %entry, %entry
  %37 = load i32, ptr %k.addr, align 4
  %38 = load i32, ptr %num_parameters.addr, align 4
  %39 = load ptr, ptr %parameters.addr, align 8
  %40 = load i32, ptr %arity.addr, align 4
  %41 = load ptr, ptr %domain.addr, align 8
  %42 = load ptr, ptr %range.addr, align 8
  %call13 = call noundef ptr @_ZN15fpa_decl_plugin17mk_rm_binary_declEijPK9parameterjPKP4sortS4_(ptr noundef nonnull align 8 dereferenceable(1008) %this1, i32 noundef %37, i32 noundef %38, ptr noundef %39, i32 noundef %40, ptr noundef %41, ptr noundef %42)
  store ptr %call13, ptr %retval, align 8
  br label %return

sw.bb14:                                          ; preds = %entry
  %43 = load i32, ptr %arity.addr, align 4
  %cmp = icmp eq i32 %43, 1
  br i1 %cmp, label %if.then, label %if.else

if.then:                                          ; preds = %sw.bb14
  %44 = load i32, ptr %num_parameters.addr, align 4
  %45 = load ptr, ptr %parameters.addr, align 8
  %46 = load i32, ptr %arity.addr, align 4
  %47 = load ptr, ptr %domain.addr, align 8
  %48 = load ptr, ptr %range.addr, align 8
  %call15 = call noundef ptr @_ZN15fpa_decl_plugin13mk_unary_declEijPK9parameterjPKP4sortS4_(ptr noundef nonnull align 8 dereferenceable(1008) %this1, i32 noundef 13, i32 noundef %44, ptr noundef %45, i32 noundef %46, ptr noundef %47, ptr noundef %48)
  store ptr %call15, ptr %retval, align 8
  br label %return

if.else:                                          ; preds = %sw.bb14
  %49 = load i32, ptr %k.addr, align 4
  %50 = load i32, ptr %num_parameters.addr, align 4
  %51 = load ptr, ptr %parameters.addr, align 8
  %52 = load i32, ptr %arity.addr, align 4
  %53 = load ptr, ptr %domain.addr, align 8
  %54 = load ptr, ptr %range.addr, align 8
  %call16 = call noundef ptr @_ZN15fpa_decl_plugin17mk_rm_binary_declEijPK9parameterjPKP4sortS4_(ptr noundef nonnull align 8 dereferenceable(1008) %this1, i32 noundef %49, i32 noundef %50, ptr noundef %51, i32 noundef %52, ptr noundef %53, ptr noundef %54)
  store ptr %call16, ptr %retval, align 8
  br label %return

sw.bb17:                                          ; preds = %entry, %entry
  %55 = load i32, ptr %k.addr, align 4
  %56 = load i32, ptr %num_parameters.addr, align 4
  %57 = load ptr, ptr %parameters.addr, align 8
  %58 = load i32, ptr %arity.addr, align 4
  %59 = load ptr, ptr %domain.addr, align 8
  %60 = load ptr, ptr %range.addr, align 8
  %call18 = call noundef ptr @_ZN15fpa_decl_plugin16mk_rm_unary_declEijPK9parameterjPKP4sortS4_(ptr noundef nonnull align 8 dereferenceable(1008) %this1, i32 noundef %55, i32 noundef %56, ptr noundef %57, i32 noundef %58, ptr noundef %59, ptr noundef %60)
  store ptr %call18, ptr %retval, align 8
  br label %return

sw.bb19:                                          ; preds = %entry
  %61 = load i32, ptr %k.addr, align 4
  %62 = load i32, ptr %num_parameters.addr, align 4
  %63 = load ptr, ptr %parameters.addr, align 8
  %64 = load i32, ptr %arity.addr, align 4
  %65 = load ptr, ptr %domain.addr, align 8
  %66 = load ptr, ptr %range.addr, align 8
  %call20 = call noundef ptr @_ZN15fpa_decl_plugin6mk_fmaEijPK9parameterjPKP4sortS4_(ptr noundef nonnull align 8 dereferenceable(1008) %this1, i32 noundef %61, i32 noundef %62, ptr noundef %63, i32 noundef %64, ptr noundef %65, ptr noundef %66)
  store ptr %call20, ptr %retval, align 8
  br label %return

sw.bb21:                                          ; preds = %entry
  %67 = load i32, ptr %k.addr, align 4
  %68 = load i32, ptr %num_parameters.addr, align 4
  %69 = load ptr, ptr %parameters.addr, align 8
  %70 = load i32, ptr %arity.addr, align 4
  %71 = load ptr, ptr %domain.addr, align 8
  %72 = load ptr, ptr %range.addr, align 8
  %call22 = call noundef ptr @_ZN15fpa_decl_plugin5mk_fpEijPK9parameterjPKP4sortS4_(ptr noundef nonnull align 8 dereferenceable(1008) %this1, i32 noundef %67, i32 noundef %68, ptr noundef %69, i32 noundef %70, ptr noundef %71, ptr noundef %72)
  store ptr %call22, ptr %retval, align 8
  br label %return

sw.bb23:                                          ; preds = %entry, %entry
  %73 = load i32, ptr %k.addr, align 4
  %74 = load i32, ptr %num_parameters.addr, align 4
  %75 = load ptr, ptr %parameters.addr, align 8
  %76 = load i32, ptr %arity.addr, align 4
  %77 = load ptr, ptr %domain.addr, align 8
  %78 = load ptr, ptr %range.addr, align 8
  %call24 = call noundef ptr @_ZN15fpa_decl_plugin9mk_to_ubvEijPK9parameterjPKP4sortS4_(ptr noundef nonnull align 8 dereferenceable(1008) %this1, i32 noundef %73, i32 noundef %74, ptr noundef %75, i32 noundef %76, ptr noundef %77, ptr noundef %78)
  store ptr %call24, ptr %retval, align 8
  br label %return

sw.bb25:                                          ; preds = %entry, %entry
  %79 = load i32, ptr %k.addr, align 4
  %80 = load i32, ptr %num_parameters.addr, align 4
  %81 = load ptr, ptr %parameters.addr, align 8
  %82 = load i32, ptr %arity.addr, align 4
  %83 = load ptr, ptr %domain.addr, align 8
  %84 = load ptr, ptr %range.addr, align 8
  %call26 = call noundef ptr @_ZN15fpa_decl_plugin9mk_to_sbvEijPK9parameterjPKP4sortS4_(ptr noundef nonnull align 8 dereferenceable(1008) %this1, i32 noundef %79, i32 noundef %80, ptr noundef %81, i32 noundef %82, ptr noundef %83, ptr noundef %84)
  store ptr %call26, ptr %retval, align 8
  br label %return

sw.bb27:                                          ; preds = %entry, %entry
  %85 = load i32, ptr %k.addr, align 4
  %86 = load i32, ptr %num_parameters.addr, align 4
  %87 = load ptr, ptr %parameters.addr, align 8
  %88 = load i32, ptr %arity.addr, align 4
  %89 = load ptr, ptr %domain.addr, align 8
  %90 = load ptr, ptr %range.addr, align 8
  %call28 = call noundef ptr @_ZN15fpa_decl_plugin10mk_to_realEijPK9parameterjPKP4sortS4_(ptr noundef nonnull align 8 dereferenceable(1008) %this1, i32 noundef %85, i32 noundef %86, ptr noundef %87, i32 noundef %88, ptr noundef %89, ptr noundef %90)
  store ptr %call28, ptr %retval, align 8
  br label %return

sw.bb29:                                          ; preds = %entry
  %91 = load i32, ptr %k.addr, align 4
  %92 = load i32, ptr %num_parameters.addr, align 4
  %93 = load ptr, ptr %parameters.addr, align 8
  %94 = load i32, ptr %arity.addr, align 4
  %95 = load ptr, ptr %domain.addr, align 8
  %96 = load ptr, ptr %range.addr, align 8
  %call30 = call noundef ptr @_ZN15fpa_decl_plugin8mk_to_fpEijPK9parameterjPKP4sortS4_(ptr noundef nonnull align 8 dereferenceable(1008) %this1, i32 noundef %91, i32 noundef %92, ptr noundef %93, i32 noundef %94, ptr noundef %95, ptr noundef %96)
  store ptr %call30, ptr %retval, align 8
  br label %return

sw.bb31:                                          ; preds = %entry
  %97 = load i32, ptr %k.addr, align 4
  %98 = load i32, ptr %num_parameters.addr, align 4
  %99 = load ptr, ptr %parameters.addr, align 8
  %100 = load i32, ptr %arity.addr, align 4
  %101 = load ptr, ptr %domain.addr, align 8
  %102 = load ptr, ptr %range.addr, align 8
  %call32 = call noundef ptr @_ZN15fpa_decl_plugin17mk_to_fp_unsignedEijPK9parameterjPKP4sortS4_(ptr noundef nonnull align 8 dereferenceable(1008) %this1, i32 noundef %97, i32 noundef %98, ptr noundef %99, i32 noundef %100, ptr noundef %101, ptr noundef %102)
  store ptr %call32, ptr %retval, align 8
  br label %return

sw.bb33:                                          ; preds = %entry, %entry
  %103 = load i32, ptr %k.addr, align 4
  %104 = load i32, ptr %num_parameters.addr, align 4
  %105 = load ptr, ptr %parameters.addr, align 8
  %106 = load i32, ptr %arity.addr, align 4
  %107 = load ptr, ptr %domain.addr, align 8
  %108 = load ptr, ptr %range.addr, align 8
  %call34 = call noundef ptr @_ZN15fpa_decl_plugin13mk_to_ieee_bvEijPK9parameterjPKP4sortS4_(ptr noundef nonnull align 8 dereferenceable(1008) %this1, i32 noundef %103, i32 noundef %104, ptr noundef %105, i32 noundef %106, ptr noundef %107, ptr noundef %108)
  store ptr %call34, ptr %retval, align 8
  br label %return

sw.bb35:                                          ; preds = %entry
  %109 = load i32, ptr %k.addr, align 4
  %110 = load i32, ptr %num_parameters.addr, align 4
  %111 = load ptr, ptr %parameters.addr, align 8
  %112 = load i32, ptr %arity.addr, align 4
  %113 = load ptr, ptr %domain.addr, align 8
  %114 = load ptr, ptr %range.addr, align 8
  %call36 = call noundef ptr @_ZN15fpa_decl_plugin10mk_bv_wrapEijPK9parameterjPKP4sortS4_(ptr noundef nonnull align 8 dereferenceable(1008) %this1, i32 noundef %109, i32 noundef %110, ptr noundef %111, i32 noundef %112, ptr noundef %113, ptr noundef %114)
  store ptr %call36, ptr %retval, align 8
  br label %return

sw.bb37:                                          ; preds = %entry
  %115 = load i32, ptr %k.addr, align 4
  %116 = load i32, ptr %num_parameters.addr, align 4
  %117 = load ptr, ptr %parameters.addr, align 8
  %118 = load i32, ptr %arity.addr, align 4
  %119 = load ptr, ptr %domain.addr, align 8
  %120 = load ptr, ptr %range.addr, align 8
  %call38 = call noundef ptr @_ZN15fpa_decl_plugin8mk_bv2rmEijPK9parameterjPKP4sortS4_(ptr noundef nonnull align 8 dereferenceable(1008) %this1, i32 noundef %115, i32 noundef %116, ptr noundef %117, i32 noundef %118, ptr noundef %119, ptr noundef %120)
  store ptr %call38, ptr %retval, align 8
  br label %return

sw.default:                                       ; preds = %entry
  %m_manager = getelementptr inbounds %class.decl_plugin, ptr %this1, i32 0, i32 1
  %121 = load ptr, ptr %m_manager, align 8
  call void @_ZN11ast_manager15raise_exceptionEPKc(ptr noundef nonnull align 8 dereferenceable(976) %121, ptr noundef @.str.100) #16
  unreachable

return:                                           ; preds = %sw.bb37, %sw.bb35, %sw.bb33, %sw.bb31, %sw.bb29, %sw.bb27, %sw.bb25, %sw.bb23, %sw.bb21, %sw.bb19, %sw.bb17, %if.else, %if.then, %sw.bb12, %sw.bb10, %sw.bb8, %sw.bb6, %sw.bb4, %sw.bb2, %sw.bb
  %122 = load ptr, ptr %retval, align 8
  ret ptr %122
}