; Function Attrs: mustprogress uwtable
define hidden noundef ptr @_ZN15fpa_decl_plugin12mk_func_declEijPK9parameterjPKP4sortS4_(ptr noundef nonnull align 8 dereferenceable(1008) %this, i32 noundef %k, i32 noundef %num_parameters, ptr noundef %parameters, i32 noundef %arity, ptr noundef %domain, ptr noundef %range) unnamed_addr #3 align 2 {
entry:
  switch i32 %k, label %sw.default [
    i32 7, label %sw.bb
    i32 6, label %sw.bb
    i32 8, label %sw.bb
    i32 10, label %sw.bb
    i32 9, label %sw.bb
    i32 0, label %sw.bb2
    i32 1, label %sw.bb2
    i32 2, label %sw.bb2
    i32 3, label %sw.bb2
    i32 4, label %sw.bb2
    i32 25, label %sw.bb4
    i32 26, label %sw.bb4
    i32 27, label %sw.bb4
    i32 28, label %sw.bb4
    i32 29, label %sw.bb4
    i32 32, label %sw.bb6
    i32 35, label %sw.bb6
    i32 36, label %sw.bb6
    i32 30, label %sw.bb6
    i32 31, label %sw.bb6
    i32 33, label %sw.bb6
    i32 34, label %sw.bb6
    i32 17, label %sw.bb8
    i32 13, label %sw.bb8
    i32 16, label %sw.bb10
    i32 18, label %sw.bb10
    i32 19, label %sw.bb10
    i32 20, label %sw.bb10
    i32 21, label %sw.bb10
    i32 11, label %sw.bb12
    i32 14, label %sw.bb12
    i32 15, label %sw.bb12
    i32 12, label %sw.bb14
    i32 23, label %sw.bb17
    i32 24, label %sw.bb17
    i32 22, label %sw.bb19
    i32 37, label %sw.bb21
    i32 40, label %sw.bb23
    i32 45, label %sw.bb23
    i32 41, label %sw.bb25
    i32 44, label %sw.bb25
    i32 42, label %sw.bb27
    i32 43, label %sw.bb27
    i32 38, label %sw.bb29
    i32 39, label %sw.bb31
    i32 46, label %sw.bb33
    i32 47, label %sw.bb33
    i32 48, label %sw.bb35
    i32 49, label %sw.bb37
  ]

sw.bb:                                            ; preds = %entry, %entry, %entry, %entry, %entry
  %call = tail call noundef ptr @_ZN15fpa_decl_plugin19mk_float_const_declEijPK9parameterjPKP4sortS4_(ptr noundef nonnull align 8 dereferenceable(1008) %this, i32 noundef %k, i32 noundef %num_parameters, ptr noundef %parameters, i32 poison, ptr poison, ptr noundef %range)
  br label %return

sw.bb2:                                           ; preds = %entry, %entry, %entry, %entry, %entry
  %call3 = tail call noundef ptr @_ZN15fpa_decl_plugin16mk_rm_const_declEijPK9parameterjPKP4sortS4_(ptr noundef nonnull align 8 dereferenceable(1008) %this, i32 noundef %k, i32 noundef %num_parameters, ptr poison, i32 noundef %arity, ptr poison, ptr poison)
  br label %return

sw.bb4:                                           ; preds = %entry, %entry, %entry, %entry, %entry
  %call5 = tail call noundef ptr @_ZN15fpa_decl_plugin15mk_bin_rel_declEijPK9parameterjPKP4sortS4_(ptr noundef nonnull align 8 dereferenceable(1008) %this, i32 noundef %k, i32 poison, ptr poison, i32 noundef %arity, ptr noundef %domain, ptr poison)
  br label %return

sw.bb6:                                           ; preds = %entry, %entry, %entry, %entry, %entry, %entry, %entry
  %call7 = tail call noundef ptr @_ZN15fpa_decl_plugin17mk_unary_rel_declEijPK9parameterjPKP4sortS4_(ptr noundef nonnull align 8 dereferenceable(1008) %this, i32 noundef %k, i32 poison, ptr poison, i32 noundef %arity, ptr noundef %domain, ptr poison)
  br label %return

sw.bb8:                                           ; preds = %entry, %entry
  %call9 = tail call noundef ptr @_ZN15fpa_decl_plugin13mk_unary_declEijPK9parameterjPKP4sortS4_(ptr noundef nonnull align 8 dereferenceable(1008) %this, i32 noundef %k, i32 poison, ptr poison, i32 noundef %arity, ptr noundef %domain, ptr poison)
  br label %return

sw.bb10:                                          ; preds = %entry, %entry, %entry, %entry, %entry
  %call11 = tail call noundef ptr @_ZN15fpa_decl_plugin14mk_binary_declEijPK9parameterjPKP4sortS4_(ptr noundef nonnull align 8 dereferenceable(1008) %this, i32 noundef %k, i32 poison, ptr poison, i32 noundef %arity, ptr noundef %domain, ptr poison)
  br label %return

sw.bb12:                                          ; preds = %entry, %entry, %entry
  %call13 = tail call noundef ptr @_ZN15fpa_decl_plugin17mk_rm_binary_declEijPK9parameterjPKP4sortS4_(ptr noundef nonnull align 8 dereferenceable(1008) %this, i32 noundef %k, i32 poison, ptr poison, i32 noundef %arity, ptr noundef %domain, ptr poison)
  br label %return

sw.bb14:                                          ; preds = %entry
  %cmp = icmp eq i32 %arity, 1
  br i1 %cmp, label %if.then, label %if.else

if.then:                                          ; preds = %sw.bb14
  %call15 = tail call noundef ptr @_ZN15fpa_decl_plugin13mk_unary_declEijPK9parameterjPKP4sortS4_(ptr noundef nonnull align 8 dereferenceable(1008) %this, i32 noundef 13, i32 poison, ptr poison, i32 noundef 1, ptr noundef %domain, ptr poison)
  br label %return

if.else:                                          ; preds = %sw.bb14
  %call16 = tail call noundef ptr @_ZN15fpa_decl_plugin17mk_rm_binary_declEijPK9parameterjPKP4sortS4_(ptr noundef nonnull align 8 dereferenceable(1008) %this, i32 noundef 12, i32 poison, ptr poison, i32 noundef %arity, ptr noundef %domain, ptr poison)
  br label %return

sw.bb17:                                          ; preds = %entry, %entry
  %call18 = tail call noundef ptr @_ZN15fpa_decl_plugin16mk_rm_unary_declEijPK9parameterjPKP4sortS4_(ptr noundef nonnull align 8 dereferenceable(1008) %this, i32 noundef %k, i32 poison, ptr poison, i32 noundef %arity, ptr noundef %domain, ptr poison)
  br label %return

sw.bb19:                                          ; preds = %entry
  %call20 = tail call noundef ptr @_ZN15fpa_decl_plugin6mk_fmaEijPK9parameterjPKP4sortS4_(ptr noundef nonnull align 8 dereferenceable(1008) %this, i32 noundef 22, i32 poison, ptr poison, i32 noundef %arity, ptr noundef %domain, ptr poison)
  br label %return

sw.bb21:                                          ; preds = %entry
  %call22 = tail call noundef ptr @_ZN15fpa_decl_plugin5mk_fpEijPK9parameterjPKP4sortS4_(ptr noundef nonnull align 8 dereferenceable(1008) %this, i32 noundef 37, i32 poison, ptr poison, i32 noundef %arity, ptr noundef %domain, ptr poison)
  br label %return

sw.bb23:                                          ; preds = %entry, %entry
  %call24 = tail call noundef ptr @_ZN15fpa_decl_plugin9mk_to_ubvEijPK9parameterjPKP4sortS4_(ptr noundef nonnull align 8 dereferenceable(1008) %this, i32 noundef %k, i32 noundef %num_parameters, ptr noundef %parameters, i32 noundef %arity, ptr noundef %domain, ptr poison)
  br label %return

sw.bb25:                                          ; preds = %entry, %entry
  %call26 = tail call noundef ptr @_ZN15fpa_decl_plugin9mk_to_sbvEijPK9parameterjPKP4sortS4_(ptr noundef nonnull align 8 dereferenceable(1008) %this, i32 noundef %k, i32 noundef %num_parameters, ptr noundef %parameters, i32 noundef %arity, ptr noundef %domain, ptr poison)
  br label %return

sw.bb27:                                          ; preds = %entry, %entry
  %call28 = tail call noundef ptr @_ZN15fpa_decl_plugin10mk_to_realEijPK9parameterjPKP4sortS4_(ptr noundef nonnull align 8 dereferenceable(1008) %this, i32 noundef %k, i32 poison, ptr poison, i32 noundef %arity, ptr noundef %domain, ptr poison)
  br label %return

sw.bb29:                                          ; preds = %entry
  %call30 = tail call noundef ptr @_ZN15fpa_decl_plugin8mk_to_fpEijPK9parameterjPKP4sortS4_(ptr noundef nonnull align 8 dereferenceable(1008) %this, i32 noundef 38, i32 noundef %num_parameters, ptr noundef %parameters, i32 noundef %arity, ptr noundef %domain, ptr poison)
  br label %return

sw.bb31:                                          ; preds = %entry
  %call32 = tail call noundef ptr @_ZN15fpa_decl_plugin17mk_to_fp_unsignedEijPK9parameterjPKP4sortS4_(ptr noundef nonnull align 8 dereferenceable(1008) %this, i32 noundef 39, i32 noundef %num_parameters, ptr noundef %parameters, i32 noundef %arity, ptr noundef %domain, ptr poison)
  br label %return

sw.bb33:                                          ; preds = %entry, %entry
  %call34 = tail call noundef ptr @_ZN15fpa_decl_plugin13mk_to_ieee_bvEijPK9parameterjPKP4sortS4_(ptr noundef nonnull align 8 dereferenceable(1008) %this, i32 noundef %k, i32 poison, ptr poison, i32 noundef %arity, ptr noundef %domain, ptr poison)
  br label %return

sw.bb35:                                          ; preds = %entry
  %call36 = tail call noundef ptr @_ZN15fpa_decl_plugin10mk_bv_wrapEijPK9parameterjPKP4sortS4_(ptr noundef nonnull align 8 dereferenceable(1008) %this, i32 noundef 48, i32 noundef %num_parameters, ptr noundef %parameters, i32 noundef %arity, ptr noundef %domain, ptr poison)
  br label %return

sw.bb37:                                          ; preds = %entry
  %call38 = tail call noundef ptr @_ZN15fpa_decl_plugin8mk_bv2rmEijPK9parameterjPKP4sortS4_(ptr noundef nonnull align 8 dereferenceable(1008) %this, i32 noundef 49, i32 noundef %num_parameters, ptr noundef %parameters, i32 noundef %arity, ptr noundef %domain, ptr noundef %range)
  br label %return

sw.default:                                       ; preds = %entry
  %m_manager = getelementptr inbounds i8, ptr %this, i64 8
  %0 = load ptr, ptr %m_manager, align 8
  tail call void @_ZN11ast_manager15raise_exceptionEPKc(ptr noundef nonnull align 8 dereferenceable(976) %0, ptr noundef nonnull @.str.100) #21
  unreachable

return:                                           ; preds = %sw.bb37, %sw.bb35, %sw.bb33, %sw.bb31, %sw.bb29, %sw.bb27, %sw.bb25, %sw.bb23, %sw.bb21, %sw.bb19, %sw.bb17, %if.else, %if.then, %sw.bb12, %sw.bb10, %sw.bb8, %sw.bb6, %sw.bb4, %sw.bb2, %sw.bb
  %retval.0 = phi ptr [ %call38, %sw.bb37 ], [ %call36, %sw.bb35 ], [ %call34, %sw.bb33 ], [ %call32, %sw.bb31 ], [ %call30, %sw.bb29 ], [ %call28, %sw.bb27 ], [ %call26, %sw.bb25 ], [ %call24, %sw.bb23 ], [ %call22, %sw.bb21 ], [ %call20, %sw.bb19 ], [ %call18, %sw.bb17 ], [ %call15, %if.then ], [ %call16, %if.else ], [ %call13, %sw.bb12 ], [ %call11, %sw.bb10 ], [ %call9, %sw.bb8 ], [ %call7, %sw.bb6 ], [ %call5, %sw.bb4 ], [ %call3, %sw.bb2 ], [ %call, %sw.bb ]
  ret ptr %retval.0
}